target datalayout = "e-m:e-p270:32:32-p271:32:32-p272:64:64-i64:64-i128:128-f80:128-n8:16:32:64-S128"
target triple = "x86_64-pc-linux-gnu"

%struct.H5VL_connector_t = type { ptr, i64, ptr, ptr }

@.str = private unnamed_addr constant [106 x i8] c"generated/home/dtcxzyw/WorkSpace/Projects/compilers/llvm-opt-benchmark/bench/hdf5/hdf5/src/H5VLcallback.c\00", align 1
@H5E_ARGS_g = external global i64, align 8
@H5E_BADTYPE_g = external global i64, align 8
@.str.1 = private unnamed_addr constant [23 x i8] c"not a VOL connector ID\00", align 1
@H5E_VOL_g = external global i64, align 8
@H5E_CANTRELEASE_g = external global i64, align 8
@__func__.H5VLrequest_wait = private unnamed_addr constant [17 x i8] c"H5VLrequest_wait\00", align 1
@.str.144 = private unnamed_addr constant [26 x i8] c"unable to wait on request\00", align 1

; Function Attrs: nounwind uwtable
define i32 @H5VLrequest_wait(ptr noundef %0, i64 noundef %1, i64 noundef %2, ptr noundef %3) #0 {
  %5 = alloca ptr, align 8
  %6 = alloca i64, align 8
  %7 = alloca i64, align 8
  %8 = alloca ptr, align 8
  %9 = alloca ptr, align 8
  %10 = alloca i32, align 4
  %11 = alloca i8, align 1
  store ptr %0, ptr %5, align 8, !tbaa !42
  store i64 %1, ptr %6, align 8, !tbaa !3
  store i64 %2, ptr %7, align 8, !tbaa !3
  store ptr %3, ptr %8, align 8, !tbaa !42
  call void @llvm.lifetime.start.p0(i64 8, ptr %9) #8
  call void @llvm.lifetime.start.p0(i64 4, ptr %10) #8
  store i32 0, ptr %10, align 4, !tbaa !7
  call void @llvm.lifetime.start.p0(i64 1, ptr %11) #8
  store i8 0, ptr %11, align 1, !tbaa !9
  %12 = load i64, ptr %6, align 8, !tbaa !3
  %13 = call ptr @H5I_object_verify(i64 noundef %12, i32 noundef 9)
  store ptr %13, ptr %9, align 8, !tbaa !11
  %14 = icmp eq ptr null, %13
  br i1 %14, label %15, label %34

15:                                               ; preds = %4
  br label %16

16:                                               ; preds = %15
  br label %17

17:                                               ; preds = %16
  br label %18

18:                                               ; preds = %17
  %19 = load i64, ptr @H5E_ARGS_g, align 8, !tbaa !3
  %20 = load i64, ptr @H5E_BADTYPE_g, align 8, !tbaa !3
  %21 = call i32 (ptr, ptr, i32, i64, i64, ptr, ...) @H5E_printf_stack(ptr noundef @.str, ptr noundef @__func__.H5VLrequest_wait, i32 noundef 6801, i64 noundef %19, i64 noundef %20, ptr noundef @.str.1)
  br label %22

22:                                               ; preds = %18
  br label %23

23:                                               ; preds = %22
  store i8 1, ptr %11, align 1, !tbaa !9
  %24 = load i8, ptr %11, align 1, !tbaa !9, !range !14, !noundef !15
  %25 = trunc i8 %24 to i1
  %26 = zext i1 %25 to i8
  store i8 %26, ptr %11, align 1, !tbaa !9
  br label %27

27:                                               ; preds = %23
  br label %28

28:                                               ; preds = %27
  br label %29

29:                                               ; preds = %28
  store i32 -1, ptr %10, align 4, !tbaa !7
  br label %63

30:                                               ; No predecessors!
  br label %31

31:                                               ; preds = %30
  br label %32

32:                                               ; preds = %31
  br label %33

33:                                               ; preds = %32
  br label %34

34:                                               ; preds = %33, %4
  %35 = load ptr, ptr %5, align 8, !tbaa !42
  %36 = load ptr, ptr %9, align 8, !tbaa !11
  %37 = getelementptr inbounds nuw %struct.H5VL_connector_t, ptr %36, i32 0, i32 0
  %38 = load ptr, ptr %37, align 8, !tbaa !16
  %39 = load i64, ptr %7, align 8, !tbaa !3
  %40 = load ptr, ptr %8, align 8, !tbaa !42
  %41 = call i32 @H5VL__request_wait(ptr noundef %35, ptr noundef %38, i64 noundef %39, ptr noundef %40)
  %42 = icmp slt i32 %41, 0
  br i1 %42, label %43, label %62

43:                                               ; preds = %34
  br label %44

44:                                               ; preds = %43
  br label %45

45:                                               ; preds = %44
  br label %46

46:                                               ; preds = %45
  %47 = load i64, ptr @H5E_VOL_g, align 8, !tbaa !3
  %48 = load i64, ptr @H5E_CANTRELEASE_g, align 8, !tbaa !3
  %49 = call i32 (ptr, ptr, i32, i64, i64, ptr, ...) @H5E_printf_stack(ptr noundef @.str, ptr noundef @__func__.H5VLrequest_wait, i32 noundef 6805, i64 noundef %47, i64 noundef %48, ptr noundef @.str.144)
  br label %50

50:                                               ; preds = %46
  br label %51

51:                                               ; preds = %50
  store i8 1, ptr %11, align 1, !tbaa !9
  %52 = load i8, ptr %11, align 1, !tbaa !9, !range !14, !noundef !15
  %53 = trunc i8 %52 to i1
  %54 = zext i1 %53 to i8
  store i8 %54, ptr %11, align 1, !tbaa !9
  br label %55

55:                                               ; preds = %51
  br label %56

56:                                               ; preds = %55
  br label %57

57:                                               ; preds = %56
  store i32 -1, ptr %10, align 4, !tbaa !7
  br label %63

58:                                               ; No predecessors!
  br label %59

59:                                               ; preds = %58
  br label %60

60:                                               ; preds = %59
  br label %61

61:                                               ; preds = %60
  br label %62

62:                                               ; preds = %61, %34
  br label %63

63:                                               ; preds = %62, %57, %29
  %64 = load i8, ptr %11, align 1, !tbaa !9, !range !14, !noundef !15
  %65 = trunc i8 %64 to i1
  %66 = xor i1 %65, true
  %67 = xor i1 %66, true
  %68 = zext i1 %67 to i32
  %69 = sext i32 %68 to i64
  %70 = call i64 @llvm.expect.i64(i64 %69, i64 0)
  %71 = icmp ne i64 %70, 0
  br i1 %71, label %72, label %74

72:                                               ; preds = %63
  %73 = call i32 @H5E_dump_api_stack()
  br label %74

74:                                               ; preds = %72, %63
  %75 = load i32, ptr %10, align 4, !tbaa !7
  call void @llvm.lifetime.end.p0(i64 1, ptr %11) #8
  call void @llvm.lifetime.end.p0(i64 4, ptr %10) #8
  call void @llvm.lifetime.end.p0(i64 8, ptr %9) #8
  ret i32 %75
}