; Function Attrs: nounwind uwtable
define range(i32 -1, 1) i32 @H5VLrequest_wait(ptr noundef %0, i64 noundef %1, i64 noundef %2, ptr noundef %3) local_unnamed_addr #0 {
  %5 = tail call ptr @H5I_object_verify(i64 noundef %1, i32 noundef 9) #7
  %6 = icmp eq ptr %5, null
  br i1 %6, label %7, label %11, !prof !41

7:                                                ; preds = %4
  %8 = load i64, ptr @H5E_ARGS_g, align 8, !tbaa !3
  %9 = load i64, ptr @H5E_BADTYPE_g, align 8, !tbaa !3
  %10 = tail call i32 (ptr, ptr, i32, i64, i64, ptr, ...) @H5E_printf_stack(ptr noundef nonnull @.str, ptr noundef nonnull @__func__.H5VLrequest_wait, i32 noundef 6801, i64 noundef %8, i64 noundef %9, ptr noundef nonnull @.str.1) #7
  br label %19

11:                                               ; preds = %4
  %12 = load ptr, ptr %5, align 8, !tbaa !7
  %13 = tail call fastcc i32 @H5VL__request_wait(ptr noundef %0, ptr noundef %12, i64 noundef %2, ptr noundef %3)
  %14 = icmp slt i32 %13, 0
  br i1 %14, label %15, label %21, !prof !41

15:                                               ; preds = %11
  %16 = load i64, ptr @H5E_VOL_g, align 8, !tbaa !3
  %17 = load i64, ptr @H5E_CANTRELEASE_g, align 8, !tbaa !3
  %18 = tail call i32 (ptr, ptr, i32, i64, i64, ptr, ...) @H5E_printf_stack(ptr noundef nonnull @.str, ptr noundef nonnull @__func__.H5VLrequest_wait, i32 noundef 6805, i64 noundef %16, i64 noundef %17, ptr noundef nonnull @.str.144) #7
  br label %19

19:                                               ; preds = %7, %15
  %20 = tail call i32 @H5E_dump_api_stack() #7
  br label %21

21:                                               ; preds = %11, %19
  %.0812 = phi i32 [ -1, %19 ], [ 0, %11 ]
  ret i32 %.0812
}